target datalayout = "e-m:e-p270:32:32-p271:32:32-p272:64:64-i64:64-i128:128-f80:128-n8:16:32:64-S128"
target triple = "x86_64-pc-linux-gnu"

; Function Attrs: nounwind uwtable
define internal void @rv40_weight_func_rnd_8(ptr noundef %0, ptr noundef %1, ptr noundef %2, i32 noundef %3, i32 noundef %4, i64 noundef %5) #3 {
  %7 = alloca ptr, align 8
  %8 = alloca ptr, align 8
  %9 = alloca ptr, align 8
  %10 = alloca i32, align 4
  %11 = alloca i32, align 4
  %12 = alloca i64, align 8
  %13 = alloca i32, align 4
  %14 = alloca i32, align 4
  store ptr %0, ptr %7, align 8, !tbaa !10
  store ptr %1, ptr %8, align 8, !tbaa !10
  store ptr %2, ptr %9, align 8, !tbaa !10
  store i32 %3, ptr %10, align 4, !tbaa !14
  store i32 %4, ptr %11, align 4, !tbaa !14
  store i64 %5, ptr %12, align 8, !tbaa !12
  call void @llvm.lifetime.start.p0(i64 4, ptr %13) #7
  call void @llvm.lifetime.start.p0(i64 4, ptr %14) #7
  store i32 0, ptr %14, align 4, !tbaa !14
  br label %15

15:                                               ; preds = %62, %6
  %16 = load i32, ptr %14, align 4, !tbaa !14
  %17 = icmp slt i32 %16, 8
  br i1 %17, label %18, label %65

18:                                               ; preds = %15
  store i32 0, ptr %13, align 4, !tbaa !14
  br label %19

19:                                               ; preds = %49, %18
  %20 = load i32, ptr %13, align 4, !tbaa !14
  %21 = icmp slt i32 %20, 8
  br i1 %21, label %22, label %52

22:                                               ; preds = %19
  %23 = load i32, ptr %11, align 4, !tbaa !14
  %24 = load ptr, ptr %8, align 8, !tbaa !10
  %25 = load i32, ptr %13, align 4, !tbaa !14
  %26 = sext i32 %25 to i64
  %27 = getelementptr inbounds i8, ptr %24, i64 %26
  %28 = load i8, ptr %27, align 1, !tbaa !16
  %29 = zext i8 %28 to i32
  %30 = mul i32 %23, %29
  %31 = lshr i32 %30, 9
  %32 = load i32, ptr %10, align 4, !tbaa !14
  %33 = load ptr, ptr %9, align 8, !tbaa !10
  %34 = load i32, ptr %13, align 4, !tbaa !14
  %35 = sext i32 %34 to i64
  %36 = getelementptr inbounds i8, ptr %33, i64 %35
  %37 = load i8, ptr %36, align 1, !tbaa !16
  %38 = zext i8 %37 to i32
  %39 = mul i32 %32, %38
  %40 = lshr i32 %39, 9
  %41 = add i32 %31, %40
  %42 = add i32 %41, 16
  %43 = lshr i32 %42, 5
  %44 = trunc i32 %43 to i8
  %45 = load ptr, ptr %7, align 8, !tbaa !10
  %46 = load i32, ptr %13, align 4, !tbaa !14
  %47 = sext i32 %46 to i64
  %48 = getelementptr inbounds i8, ptr %45, i64 %47
  store i8 %44, ptr %48, align 1, !tbaa !16
  br label %49

49:                                               ; preds = %22
  %50 = load i32, ptr %13, align 4, !tbaa !14
  %51 = add nsw i32 %50, 1
  store i32 %51, ptr %13, align 4, !tbaa !14
  br label %19, !llvm.loop !28

52:                                               ; preds = %19
  %53 = load i64, ptr %12, align 8, !tbaa !12
  %54 = load ptr, ptr %8, align 8, !tbaa !10
  %55 = getelementptr inbounds i8, ptr %54, i64 %53
  store ptr %55, ptr %8, align 8, !tbaa !10
  %56 = load i64, ptr %12, align 8, !tbaa !12
  %57 = load ptr, ptr %9, align 8, !tbaa !10
  %58 = getelementptr inbounds i8, ptr %57, i64 %56
  store ptr %58, ptr %9, align 8, !tbaa !10
  %59 = load i64, ptr %12, align 8, !tbaa !12
  %60 = load ptr, ptr %7, align 8, !tbaa !10
  %61 = getelementptr inbounds i8, ptr %60, i64 %59
  store ptr %61, ptr %7, align 8, !tbaa !10
  br label %62

62:                                               ; preds = %52
  %63 = load i32, ptr %14, align 4, !tbaa !14
  %64 = add nsw i32 %63, 1
  store i32 %64, ptr %14, align 4, !tbaa !14
  br label %15, !llvm.loop !29

65:                                               ; preds = %15
  call void @llvm.lifetime.end.p0(i64 4, ptr %14) #7
  call void @llvm.lifetime.end.p0(i64 4, ptr %13) #7
  ret void
}