; Function Attrs: nofree norecurse nosync nounwind memory(argmem: readwrite) uwtable
define internal void @rv40_weight_func_rnd_8(ptr noundef writeonly captures(none) %0, ptr noundef readonly captures(none) %1, ptr noundef readonly captures(none) %2, i32 noundef %3, i32 noundef %4, i64 noundef %5) #3 {
  br label %.preheader

.preheader:                                       ; preds = %6, %23
  %.025 = phi i32 [ 0, %6 ], [ %27, %23 ]
  %.01824 = phi ptr [ %0, %6 ], [ %26, %23 ]
  %.01923 = phi ptr [ %1, %6 ], [ %24, %23 ]
  %.02022 = phi ptr [ %2, %6 ], [ %25, %23 ]
  br label %7

7:                                                ; preds = %.preheader, %7
  %indvars.iv = phi i64 [ 0, %.preheader ], [ %indvars.iv.next, %7 ]
  %8 = getelementptr inbounds nuw i8, ptr %.01923, i64 %indvars.iv
  %9 = load i8, ptr %8, align 1, !tbaa !8
  %10 = zext i8 %9 to i32
  %11 = mul i32 %4, %10
  %12 = lshr i32 %11, 9
  %13 = getelementptr inbounds nuw i8, ptr %.02022, i64 %indvars.iv
  %14 = load i8, ptr %13, align 1, !tbaa !8
  %15 = zext i8 %14 to i32
  %16 = mul i32 %3, %15
  %17 = lshr i32 %16, 9
  %18 = add nuw nsw i32 %12, 16
  %19 = add nuw nsw i32 %18, %17
  %20 = lshr i32 %19, 5
  %21 = trunc i32 %20 to i8
  %22 = getelementptr inbounds nuw i8, ptr %.01824, i64 %indvars.iv
  store i8 %21, ptr %22, align 1, !tbaa !8
  %indvars.iv.next = add nuw nsw i64 %indvars.iv, 1
  %exitcond.not = icmp eq i64 %indvars.iv.next, 8
  br i1 %exitcond.not, label %23, label %7, !llvm.loop !26

23:                                               ; preds = %7
  %24 = getelementptr inbounds i8, ptr %.01923, i64 %5
  %25 = getelementptr inbounds i8, ptr %.02022, i64 %5
  %26 = getelementptr inbounds i8, ptr %.01824, i64 %5
  %27 = add nuw nsw i32 %.025, 1
  %exitcond27.not = icmp eq i32 %27, 8
  br i1 %exitcond27.not, label %28, label %.preheader, !llvm.loop !27

28:                                               ; preds = %23
  ret void
}